target datalayout = "e-m:e-p270:32:32-p271:32:32-p272:64:64-i64:64-i128:128-f80:128-n8:16:32:64-S128"
target triple = "x86_64-pc-linux-gnu"

; Function Attrs: nounwind uwtable
define i32 @wolfSSL_CTX_SetTmpDH(ptr noundef %0, ptr noundef %1, i32 noundef %2, ptr noundef %3, i32 noundef %4) #0 {
  %6 = alloca ptr, align 8
  %7 = alloca ptr, align 8
  %8 = alloca i32, align 4
  %9 = alloca ptr, align 8
  %10 = alloca i32, align 4
  %11 = alloca i32, align 4
  %12 = alloca ptr, align 8
  %13 = alloca ptr, align 8
  %14 = alloca ptr, align 8
  %15 = alloca ptr, align 8
  store ptr %0, ptr %6, align 8, !tbaa !24
  store ptr %1, ptr %7, align 8, !tbaa !21
  store i32 %2, ptr %8, align 4, !tbaa !7
  store ptr %3, ptr %9, align 8, !tbaa !21
  store i32 %4, ptr %10, align 4, !tbaa !7
  call void @llvm.lifetime.start.p0(i64 4, ptr %11) #9
  store i32 1, ptr %11, align 4, !tbaa !7
  call void @llvm.lifetime.start.p0(i64 8, ptr %12) #9
  store ptr null, ptr %12, align 8, !tbaa !21
  call void @llvm.lifetime.start.p0(i64 8, ptr %13) #9
  store ptr null, ptr %13, align 8, !tbaa !21
  %16 = load ptr, ptr %6, align 8, !tbaa !24
  %17 = icmp eq ptr %16, null
  br i1 %17, label %24, label %18

18:                                               ; preds = %5
  %19 = load ptr, ptr %7, align 8, !tbaa !21
  %20 = icmp eq ptr %19, null
  br i1 %20, label %24, label %21

21:                                               ; preds = %18
  %22 = load ptr, ptr %9, align 8, !tbaa !21
  %23 = icmp eq ptr %22, null
  br i1 %23, label %24, label %25

24:                                               ; preds = %21, %18, %5
  store i32 -173, ptr %11, align 4, !tbaa !7
  br label %25

25:                                               ; preds = %24, %21
  %26 = load i32, ptr %11, align 4, !tbaa !7
  %27 = icmp eq i32 %26, 1
  br i1 %27, label %28, label %42

28:                                               ; preds = %25
  %29 = load i32, ptr %8, align 4, !tbaa !7
  %30 = sext i32 %29 to i64
  %31 = call ptr @wolfSSL_Malloc(i64 noundef %30)
  store ptr %31, ptr %12, align 8, !tbaa !21
  %32 = load i32, ptr %10, align 4, !tbaa !7
  %33 = sext i32 %32 to i64
  %34 = call ptr @wolfSSL_Malloc(i64 noundef %33)
  store ptr %34, ptr %13, align 8, !tbaa !21
  %35 = load ptr, ptr %12, align 8, !tbaa !21
  %36 = icmp eq ptr %35, null
  br i1 %36, label %40, label %37

37:                                               ; preds = %28
  %38 = load ptr, ptr %13, align 8, !tbaa !21
  %39 = icmp eq ptr %38, null
  br i1 %39, label %40, label %41

40:                                               ; preds = %37, %28
  store i32 -125, ptr %11, align 4, !tbaa !7
  br label %41

41:                                               ; preds = %40, %37
  br label %42

42:                                               ; preds = %41, %25
  %43 = load i32, ptr %11, align 4, !tbaa !7
  %44 = icmp eq i32 %43, 1
  br i1 %44, label %45, label %60

45:                                               ; preds = %42
  %46 = load ptr, ptr %12, align 8, !tbaa !21
  %47 = load ptr, ptr %7, align 8, !tbaa !21
  %48 = load i32, ptr %8, align 4, !tbaa !7
  %49 = sext i32 %48 to i64
  call void @llvm.memcpy.p0.p0.i64(ptr align 1 %46, ptr align 1 %47, i64 %49, i1 false)
  %50 = load ptr, ptr %13, align 8, !tbaa !21
  %51 = load ptr, ptr %9, align 8, !tbaa !21
  %52 = load i32, ptr %10, align 4, !tbaa !7
  %53 = sext i32 %52 to i64
  call void @llvm.memcpy.p0.p0.i64(ptr align 1 %50, ptr align 1 %51, i64 %53, i1 false)
  %54 = load ptr, ptr %6, align 8, !tbaa !24
  %55 = load ptr, ptr %12, align 8, !tbaa !21
  %56 = load i32, ptr %8, align 4, !tbaa !7
  %57 = load ptr, ptr %13, align 8, !tbaa !21
  %58 = load i32, ptr %10, align 4, !tbaa !7
  %59 = call i32 @wolfssl_ctx_set_tmp_dh(ptr noundef %54, ptr noundef %55, i32 noundef %56, ptr noundef %57, i32 noundef %58)
  store i32 %59, ptr %11, align 4, !tbaa !7
  br label %60

60:                                               ; preds = %45, %42
  %61 = load i32, ptr %11, align 4, !tbaa !7
  %62 = icmp ne i32 %61, 1
  br i1 %62, label %63, label %85

63:                                               ; preds = %60
  %64 = load ptr, ptr %6, align 8, !tbaa !24
  %65 = icmp ne ptr %64, null
  br i1 %65, label %66, label %85

66:                                               ; preds = %63
  br label %67

67:                                               ; preds = %66
  call void @llvm.lifetime.start.p0(i64 8, ptr %14) #9
  %68 = load ptr, ptr %12, align 8, !tbaa !21
  store ptr %68, ptr %14, align 8, !tbaa !3
  %69 = load ptr, ptr %14, align 8, !tbaa !3
  %70 = icmp ne ptr %69, null
  br i1 %70, label %71, label %73

71:                                               ; preds = %67
  %72 = load ptr, ptr %14, align 8, !tbaa !3
  call void @wolfSSL_Free(ptr noundef %72)
  br label %73

73:                                               ; preds = %71, %67
  call void @llvm.lifetime.end.p0(i64 8, ptr %14) #9
  br label %74

74:                                               ; preds = %73
  br label %75

75:                                               ; preds = %74
  br label %76

76:                                               ; preds = %75
  call void @llvm.lifetime.start.p0(i64 8, ptr %15) #9
  %77 = load ptr, ptr %13, align 8, !tbaa !21
  store ptr %77, ptr %15, align 8, !tbaa !3
  %78 = load ptr, ptr %15, align 8, !tbaa !3
  %79 = icmp ne ptr %78, null
  br i1 %79, label %80, label %82

80:                                               ; preds = %76
  %81 = load ptr, ptr %15, align 8, !tbaa !3
  call void @wolfSSL_Free(ptr noundef %81)
  br label %82

82:                                               ; preds = %80, %76
  call void @llvm.lifetime.end.p0(i64 8, ptr %15) #9
  br label %83

83:                                               ; preds = %82
  br label %84

84:                                               ; preds = %83
  br label %85

85:                                               ; preds = %84, %63, %60
  %86 = load i32, ptr %11, align 4, !tbaa !7
  call void @llvm.lifetime.end.p0(i64 8, ptr %13) #9
  call void @llvm.lifetime.end.p0(i64 8, ptr %12) #9
  call void @llvm.lifetime.end.p0(i64 4, ptr %11) #9
  ret i32 %86
}