; Function Attrs: nounwind uwtable
define range(i32 1, 0) i32 @wolfSSL_CTX_SetTmpDH(ptr noundef captures(address_is_null) %0, ptr noundef readonly captures(address_is_null) %1, i32 noundef %2, ptr noundef readonly captures(address_is_null) %3, i32 noundef %4) local_unnamed_addr #0 {
  %6 = icmp ne ptr %0, null
  %7 = icmp ne ptr %1, null
  %8 = icmp ne ptr %3, null
  %9 = and i1 %7, %8
  %or.cond3.not = and i1 %6, %9
  br i1 %or.cond3.not, label %10, label %.thread70

10:                                               ; preds = %5
  %11 = sext i32 %2 to i64
  %12 = tail call ptr @wolfSSL_Malloc(i64 noundef %11) #22
  %13 = sext i32 %4 to i64
  %14 = tail call ptr @wolfSSL_Malloc(i64 noundef %13) #22
  %15 = icmp eq ptr %12, null
  %16 = icmp eq ptr %14, null
  %or.cond5 = select i1 %15, i1 true, i1 %16
  br i1 %or.cond5, label %.thread51, label %.thread

.thread:                                          ; preds = %10
  tail call void @llvm.memcpy.p0.p0.i64(ptr nonnull align 1 %12, ptr nonnull align 1 %1, i64 %11, i1 false)
  tail call void @llvm.memcpy.p0.p0.i64(ptr nonnull align 1 %14, ptr nonnull align 1 %3, i64 %13, i1 false)
  %17 = tail call fastcc i32 @wolfssl_ctx_set_tmp_dh(ptr noundef nonnull %0, ptr noundef nonnull %12, i32 noundef %2, ptr noundef nonnull %14, i32 noundef %4)
  br label %.thread51

.thread51:                                        ; preds = %10, %.thread
  %.2 = phi i32 [ %17, %.thread ], [ -125, %10 ]
  %18 = icmp ne i32 %.2, 1
  %or.cond7 = and i1 %6, %18
  br i1 %or.cond7, label %19, label %.thread70

19:                                               ; preds = %.thread51
  %.not = icmp eq ptr %12, null
  br i1 %.not, label %21, label %20

20:                                               ; preds = %19
  tail call void @wolfSSL_Free(ptr noundef nonnull %12) #22
  br label %21

21:                                               ; preds = %20, %19
  %.not42 = icmp eq ptr %14, null
  br i1 %.not42, label %.thread70, label %22

22:                                               ; preds = %21
  tail call void @wolfSSL_Free(ptr noundef nonnull %14) #22
  br label %.thread70

.thread70:                                        ; preds = %5, %21, %22, %.thread51
  %.261 = phi i32 [ %.2, %21 ], [ %.2, %22 ], [ %.2, %.thread51 ], [ -173, %5 ]
  ret i32 %.261
}